target datalayout = "e-m:e-p270:32:32-p271:32:32-p272:64:64-i64:64-i128:128-f80:128-n8:16:32:64-S128"
target triple = "x86_64-pc-linux-gnu"

%struct.hwloc_xml_backend_data_s = type { ptr, ptr, ptr, ptr, ptr, ptr, ptr, ptr, ptr, ptr, ptr, i32, i32, i8, i8, i8, i8, i8, i8 }
%struct.hwloc__xml_import_state_s = type { ptr, ptr, [32 x i8] }
%struct._xmlNode = type { ptr, i32, ptr, ptr, ptr, ptr, ptr, ptr, ptr, ptr, ptr, ptr, ptr, ptr, i16, i16 }
%struct.hwloc__libxml_import_state_data_s = type { ptr, ptr, ptr }

@stderr = external global ptr, align 8
@.str.14 = private unnamed_addr constant [37 x i8] c"%s: ignoring object text content %s\0A\00", align 1
@.str.15 = private unnamed_addr constant [42 x i8] c"%s: ignoring unexpected xml node type %u\0A\00", align 1

; Function Attrs: nounwind uwtable
define internal i32 @hwloc__libxml_import_find_child(ptr noundef %0, ptr noundef %1, ptr noundef %2) #0 {
  %4 = alloca i32, align 4
  %5 = alloca ptr, align 8
  %6 = alloca ptr, align 8
  %7 = alloca ptr, align 8
  %8 = alloca ptr, align 8
  %9 = alloca ptr, align 8
  %10 = alloca ptr, align 8
  %11 = alloca i32, align 4
  store ptr %0, ptr %5, align 8, !tbaa !30
  store ptr %1, ptr %6, align 8, !tbaa !30
  store ptr %2, ptr %7, align 8, !tbaa !25
  call void @llvm.lifetime.start.p0(i64 8, ptr %8) #7
  %12 = load ptr, ptr %5, align 8, !tbaa !30
  %13 = getelementptr inbounds nuw %struct.hwloc__xml_import_state_s, ptr %12, i32 0, i32 2
  %14 = getelementptr inbounds [32 x i8], ptr %13, i64 0, i64 0
  store ptr %14, ptr %8, align 8, !tbaa !34
  call void @llvm.lifetime.start.p0(i64 8, ptr %9) #7
  %15 = load ptr, ptr %6, align 8, !tbaa !30
  %16 = getelementptr inbounds nuw %struct.hwloc__xml_import_state_s, ptr %15, i32 0, i32 2
  %17 = getelementptr inbounds [32 x i8], ptr %16, i64 0, i64 0
  store ptr %17, ptr %9, align 8, !tbaa !34
  call void @llvm.lifetime.start.p0(i64 8, ptr %10) #7
  %18 = load ptr, ptr %5, align 8, !tbaa !30
  %19 = load ptr, ptr %6, align 8, !tbaa !30
  %20 = getelementptr inbounds nuw %struct.hwloc__xml_import_state_s, ptr %19, i32 0, i32 0
  store ptr %18, ptr %20, align 8, !tbaa !58
  %21 = load ptr, ptr %5, align 8, !tbaa !30
  %22 = getelementptr inbounds nuw %struct.hwloc__xml_import_state_s, ptr %21, i32 0, i32 1
  %23 = load ptr, ptr %22, align 8, !tbaa !40
  %24 = load ptr, ptr %6, align 8, !tbaa !30
  %25 = getelementptr inbounds nuw %struct.hwloc__xml_import_state_s, ptr %24, i32 0, i32 1
  store ptr %23, ptr %25, align 8, !tbaa !40
  %26 = load ptr, ptr %8, align 8, !tbaa !34
  %27 = getelementptr inbounds nuw %struct.hwloc__libxml_import_state_data_s, ptr %26, i32 0, i32 1
  %28 = load ptr, ptr %27, align 8, !tbaa !59
  %29 = icmp ne ptr %28, null
  br i1 %29, label %31, label %30

30:                                               ; preds = %3
  store i32 0, ptr %4, align 4
  store i32 1, ptr %11, align 4
  br label %124

31:                                               ; preds = %3
  %32 = load ptr, ptr %8, align 8, !tbaa !34
  %33 = getelementptr inbounds nuw %struct.hwloc__libxml_import_state_data_s, ptr %32, i32 0, i32 1
  %34 = load ptr, ptr %33, align 8, !tbaa !59
  store ptr %34, ptr %10, align 8, !tbaa !46
  %35 = load ptr, ptr %10, align 8, !tbaa !46
  %36 = getelementptr inbounds nuw %struct._xmlNode, ptr %35, i32 0, i32 1
  %37 = load i32, ptr %36, align 8, !tbaa !71
  %38 = icmp eq i32 %37, 1
  br i1 %38, label %39, label %59

39:                                               ; preds = %31
  %40 = load ptr, ptr %10, align 8, !tbaa !46
  %41 = getelementptr inbounds nuw %struct._xmlNode, ptr %40, i32 0, i32 6
  %42 = load ptr, ptr %41, align 8, !tbaa !74
  %43 = load ptr, ptr %8, align 8, !tbaa !34
  %44 = getelementptr inbounds nuw %struct.hwloc__libxml_import_state_data_s, ptr %43, i32 0, i32 1
  store ptr %42, ptr %44, align 8, !tbaa !59
  %45 = load ptr, ptr %10, align 8, !tbaa !46
  %46 = load ptr, ptr %9, align 8, !tbaa !34
  %47 = getelementptr inbounds nuw %struct.hwloc__libxml_import_state_data_s, ptr %46, i32 0, i32 0
  store ptr %45, ptr %47, align 8, !tbaa !59
  %48 = load ptr, ptr %10, align 8, !tbaa !46
  %49 = getelementptr inbounds nuw %struct._xmlNode, ptr %48, i32 0, i32 3
  %50 = load ptr, ptr %49, align 8, !tbaa !60
  %51 = load ptr, ptr %9, align 8, !tbaa !34
  %52 = getelementptr inbounds nuw %struct.hwloc__libxml_import_state_data_s, ptr %51, i32 0, i32 1
  store ptr %50, ptr %52, align 8, !tbaa !59
  %53 = load ptr, ptr %9, align 8, !tbaa !34
  %54 = getelementptr inbounds nuw %struct.hwloc__libxml_import_state_data_s, ptr %53, i32 0, i32 2
  store ptr null, ptr %54, align 8, !tbaa !59
  %55 = load ptr, ptr %10, align 8, !tbaa !46
  %56 = getelementptr inbounds nuw %struct._xmlNode, ptr %55, i32 0, i32 2
  %57 = load ptr, ptr %56, align 8, !tbaa !47
  %58 = load ptr, ptr %7, align 8, !tbaa !25
  store ptr %57, ptr %58, align 8, !tbaa !7
  store i32 1, ptr %4, align 4
  store i32 1, ptr %11, align 4
  br label %124

59:                                               ; preds = %31
  %60 = load ptr, ptr %10, align 8, !tbaa !46
  %61 = getelementptr inbounds nuw %struct._xmlNode, ptr %60, i32 0, i32 1
  %62 = load i32, ptr %61, align 8, !tbaa !71
  %63 = icmp eq i32 %62, 3
  br i1 %63, label %64, label %101

64:                                               ; preds = %59
  %65 = load ptr, ptr %10, align 8, !tbaa !46
  %66 = getelementptr inbounds nuw %struct._xmlNode, ptr %65, i32 0, i32 10
  %67 = load ptr, ptr %66, align 8, !tbaa !72
  %68 = icmp ne ptr %67, null
  br i1 %68, label %69, label %100

69:                                               ; preds = %64
  %70 = load ptr, ptr %10, align 8, !tbaa !46
  %71 = getelementptr inbounds nuw %struct._xmlNode, ptr %70, i32 0, i32 10
  %72 = load ptr, ptr %71, align 8, !tbaa !72
  %73 = getelementptr inbounds i8, ptr %72, i64 0
  %74 = load i8, ptr %73, align 1, !tbaa !59
  %75 = zext i8 %74 to i32
  %76 = icmp ne i32 %75, 0
  br i1 %76, label %77, label %100

77:                                               ; preds = %69
  %78 = load ptr, ptr %10, align 8, !tbaa !46
  %79 = getelementptr inbounds nuw %struct._xmlNode, ptr %78, i32 0, i32 10
  %80 = load ptr, ptr %79, align 8, !tbaa !72
  %81 = getelementptr inbounds i8, ptr %80, i64 0
  %82 = load i8, ptr %81, align 1, !tbaa !59
  %83 = zext i8 %82 to i32
  %84 = icmp ne i32 %83, 10
  br i1 %84, label %85, label %100

85:                                               ; preds = %77
  %86 = call i32 @hwloc__xml_verbose()
  %87 = icmp ne i32 %86, 0
  br i1 %87, label %88, label %99

88:                                               ; preds = %85
  %89 = load ptr, ptr @stderr, align 8, !tbaa !38
  %90 = load ptr, ptr %5, align 8, !tbaa !30
  %91 = getelementptr inbounds nuw %struct.hwloc__xml_import_state_s, ptr %90, i32 0, i32 1
  %92 = load ptr, ptr %91, align 8, !tbaa !40
  %93 = getelementptr inbounds nuw %struct.hwloc_xml_backend_data_s, ptr %92, i32 0, i32 9
  %94 = load ptr, ptr %93, align 8, !tbaa !42
  %95 = load ptr, ptr %10, align 8, !tbaa !46
  %96 = getelementptr inbounds nuw %struct._xmlNode, ptr %95, i32 0, i32 10
  %97 = load ptr, ptr %96, align 8, !tbaa !72
  %98 = call i32 (ptr, ptr, ...) @fprintf(ptr noundef %89, ptr noundef @.str.14, ptr noundef %94, ptr noundef %97) #7
  br label %99

99:                                               ; preds = %88, %85
  br label %100

100:                                              ; preds = %99, %77, %69, %64
  br label %122

101:                                              ; preds = %59
  %102 = load ptr, ptr %10, align 8, !tbaa !46
  %103 = getelementptr inbounds nuw %struct._xmlNode, ptr %102, i32 0, i32 1
  %104 = load i32, ptr %103, align 8, !tbaa !71
  %105 = icmp ne i32 %104, 8
  br i1 %105, label %106, label %121

106:                                              ; preds = %101
  %107 = call i32 @hwloc__xml_verbose()
  %108 = icmp ne i32 %107, 0
  br i1 %108, label %109, label %120

109:                                              ; preds = %106
  %110 = load ptr, ptr @stderr, align 8, !tbaa !38
  %111 = load ptr, ptr %5, align 8, !tbaa !30
  %112 = getelementptr inbounds nuw %struct.hwloc__xml_import_state_s, ptr %111, i32 0, i32 1
  %113 = load ptr, ptr %112, align 8, !tbaa !40
  %114 = getelementptr inbounds nuw %struct.hwloc_xml_backend_data_s, ptr %113, i32 0, i32 9
  %115 = load ptr, ptr %114, align 8, !tbaa !42
  %116 = load ptr, ptr %10, align 8, !tbaa !46
  %117 = getelementptr inbounds nuw %struct._xmlNode, ptr %116, i32 0, i32 1
  %118 = load i32, ptr %117, align 8, !tbaa !71
  %119 = call i32 (ptr, ptr, ...) @fprintf(ptr noundef %110, ptr noundef @.str.15, ptr noundef %115, i32 noundef %118) #7
  br label %120

120:                                              ; preds = %109, %106
  br label %121

121:                                              ; preds = %120, %101
  br label %122

122:                                              ; preds = %121, %100
  br label %123

123:                                              ; preds = %122
  store i32 0, ptr %4, align 4
  store i32 1, ptr %11, align 4
  br label %124

124:                                              ; preds = %123, %39, %30
  call void @llvm.lifetime.end.p0(i64 8, ptr %10) #7
  call void @llvm.lifetime.end.p0(i64 8, ptr %9) #7
  call void @llvm.lifetime.end.p0(i64 8, ptr %8) #7
  %125 = load i32, ptr %4, align 4
  ret i32 %125
}