; Function Attrs: nounwind uwtable
define internal range(i32 0, 2) i32 @hwloc__libxml_import_find_child(ptr noundef %0, ptr noundef writeonly captures(none) initializes((0, 16)) %1, ptr noundef writeonly captures(none) %2) #1 {
  %4 = getelementptr inbounds nuw i8, ptr %1, i64 16
  store ptr %0, ptr %1, align 8, !tbaa !38
  %5 = getelementptr inbounds nuw i8, ptr %0, i64 8
  %6 = load ptr, ptr %5, align 8, !tbaa !18
  %7 = getelementptr inbounds nuw i8, ptr %1, i64 8
  store ptr %6, ptr %7, align 8, !tbaa !18
  %8 = getelementptr inbounds nuw i8, ptr %0, i64 24
  %9 = load ptr, ptr %8, align 8, !tbaa !39
  %.not = icmp eq ptr %9, null
  br i1 %.not, label %45, label %10

10:                                               ; preds = %3
  %11 = getelementptr inbounds nuw i8, ptr %9, i64 8
  %12 = load i32, ptr %11, align 8, !tbaa !47
  switch i32 %12, label %36 [
    i32 1, label %13
    i32 3, label %22
    i32 8, label %45
  ]

13:                                               ; preds = %10
  %14 = getelementptr inbounds nuw i8, ptr %9, i64 48
  %15 = load ptr, ptr %14, align 8, !tbaa !53
  store ptr %15, ptr %8, align 8, !tbaa !39
  store ptr %9, ptr %4, align 8, !tbaa !39
  %16 = getelementptr inbounds nuw i8, ptr %9, i64 24
  %17 = load ptr, ptr %16, align 8, !tbaa !40
  %18 = getelementptr inbounds nuw i8, ptr %1, i64 24
  store ptr %17, ptr %18, align 8, !tbaa !39
  %19 = getelementptr inbounds nuw i8, ptr %1, i64 32
  store ptr null, ptr %19, align 8, !tbaa !39
  %20 = getelementptr inbounds nuw i8, ptr %9, i64 16
  %21 = load ptr, ptr %20, align 8, !tbaa !27
  store ptr %21, ptr %2, align 8, !tbaa !15
  br label %45

22:                                               ; preds = %10
  %23 = getelementptr inbounds nuw i8, ptr %9, i64 80
  %24 = load ptr, ptr %23, align 8, !tbaa !48
  %.not33 = icmp eq ptr %24, null
  br i1 %.not33, label %45, label %25

25:                                               ; preds = %22
  %26 = load i8, ptr %24, align 1, !tbaa !39
  switch i8 %26, label %27 [
    i8 0, label %45
    i8 10, label %45
  ]

27:                                               ; preds = %25
  %28 = tail call i32 @hwloc__xml_verbose() #11
  %.not36 = icmp eq i32 %28, 0
  br i1 %.not36, label %45, label %29

29:                                               ; preds = %27
  %30 = load ptr, ptr @stderr, align 8, !tbaa !16
  %31 = load ptr, ptr %5, align 8, !tbaa !18
  %32 = getelementptr inbounds nuw i8, ptr %31, i64 72
  %33 = load ptr, ptr %32, align 8, !tbaa !22
  %34 = load ptr, ptr %23, align 8, !tbaa !48
  %35 = tail call i32 (ptr, ptr, ...) @fprintf(ptr noundef %30, ptr noundef nonnull @.str.14, ptr noundef %33, ptr noundef %34) #13
  br label %45

36:                                               ; preds = %10
  %37 = tail call i32 @hwloc__xml_verbose() #11
  %.not32 = icmp eq i32 %37, 0
  br i1 %.not32, label %45, label %38

38:                                               ; preds = %36
  %39 = load ptr, ptr @stderr, align 8, !tbaa !16
  %40 = load ptr, ptr %5, align 8, !tbaa !18
  %41 = getelementptr inbounds nuw i8, ptr %40, i64 72
  %42 = load ptr, ptr %41, align 8, !tbaa !22
  %43 = load i32, ptr %11, align 8, !tbaa !47
  %44 = tail call i32 (ptr, ptr, ...) @fprintf(ptr noundef %39, ptr noundef nonnull @.str.15, ptr noundef %42, i32 noundef %43) #13
  br label %45

45:                                               ; preds = %38, %36, %22, %29, %27, %25, %25, %10, %3, %13
  %.0 = phi i32 [ 1, %13 ], [ 0, %3 ], [ 0, %10 ], [ 0, %25 ], [ 0, %25 ], [ 0, %27 ], [ 0, %29 ], [ 0, %22 ], [ 0, %36 ], [ 0, %38 ]
  ret i32 %.0
}